; Function Attrs: null_pointer_is_valid sspstrong uwtable
define internal noundef zeroext i1 @bytes_is_zero(ptr noundef readonly captures(none) %0) #0 {
  %2 = alloca i64, align 8
  call void @llvm.lifetime.start.p0(i64 8, ptr nonnull %2) #12
  %3 = getelementptr inbounds nuw i8, ptr %0, i64 8
  %4 = load ptr, ptr %3, align 8
  %5 = call ptr @g_bytes_get_data(ptr noundef %4, ptr noundef nonnull %2)
  %6 = load i64, ptr %2, align 8
  %7 = icmp eq i64 %6, 0
  br i1 %7, label %.loopexit, label %.preheader

.preheader:                                       ; preds = %1, %.preheader
  %.09 = phi i64 [ %10, %.preheader ], [ 0, %1 ]
  %8 = getelementptr i8, ptr %5, i64 %.09
  %9 = load i8, ptr %8, align 1
  %.not = icmp eq i8 %9, 0
  %10 = add nuw i64 %.09, 1
  %exitcond.not = icmp ne i64 %10, %6
  %or.cond.not = select i1 %.not, i1 %exitcond.not, i1 false
  br i1 %or.cond.not, label %.preheader, label %.loopexit, !llvm.loop !6

.loopexit:                                        ; preds = %.preheader, %1
  %.07 = phi i1 [ true, %1 ], [ %.not, %.preheader ]
  call void @llvm.lifetime.end.p0(i64 8, ptr nonnull %2) #12
  ret i1 %.07
}